target datalayout = "e-m:e-p270:32:32-p271:32:32-p272:64:64-i64:64-i128:128-f80:128-n8:16:32:64-S128"
target triple = "x86_64-unknown-linux-gnu"

%"class.icu_75::UVector" = type { %"class.icu_75::UObject", i32, i32, ptr, ptr, ptr }
%"class.icu_75::UObject" = type { ptr }
%union.UElement = type { ptr }

; Function Attrs: mustprogress nounwind uwtable
define noundef ptr @_ZN6icu_757UVector15orphanElementAtEi(ptr noundef nonnull align 8 dereferenceable(40) %this, i32 noundef %index) #0 align 2 {
entry:
  %this.addr = alloca ptr, align 8
  %index.addr = alloca i32, align 4
  %e = alloca ptr, align 8
  %i = alloca i32, align 4
  store ptr %this, ptr %this.addr, align 8
  store i32 %index, ptr %index.addr, align 4
  %this1 = load ptr, ptr %this.addr, align 8
  store ptr null, ptr %e, align 8
  %0 = load i32, ptr %index.addr, align 4
  %cmp = icmp sle i32 0, %0
  br i1 %cmp, label %land.lhs.true, label %if.end

land.lhs.true:                                    ; preds = %entry
  %1 = load i32, ptr %index.addr, align 4
  %count = getelementptr inbounds %"class.icu_75::UVector", ptr %this1, i32 0, i32 1
  %2 = load i32, ptr %count, align 8
  %cmp2 = icmp slt i32 %1, %2
  br i1 %cmp2, label %if.then, label %if.end

if.then:                                          ; preds = %land.lhs.true
  %elements = getelementptr inbounds %"class.icu_75::UVector", ptr %this1, i32 0, i32 3
  %3 = load ptr, ptr %elements, align 8
  %4 = load i32, ptr %index.addr, align 4
  %idxprom = sext i32 %4 to i64
  %arrayidx = getelementptr inbounds %union.UElement, ptr %3, i64 %idxprom
  %5 = load ptr, ptr %arrayidx, align 8
  store ptr %5, ptr %e, align 8
  %6 = load i32, ptr %index.addr, align 4
  store i32 %6, ptr %i, align 4
  br label %for.cond

for.cond:                                         ; preds = %for.inc, %if.then
  %7 = load i32, ptr %i, align 4
  %count3 = getelementptr inbounds %"class.icu_75::UVector", ptr %this1, i32 0, i32 1
  %8 = load i32, ptr %count3, align 8
  %sub = sub nsw i32 %8, 1
  %cmp4 = icmp slt i32 %7, %sub
  br i1 %cmp4, label %for.body, label %for.end

for.body:                                         ; preds = %for.cond
  %elements5 = getelementptr inbounds %"class.icu_75::UVector", ptr %this1, i32 0, i32 3
  %9 = load ptr, ptr %elements5, align 8
  %10 = load i32, ptr %i, align 4
  %add = add nsw i32 %10, 1
  %idxprom6 = sext i32 %add to i64
  %arrayidx7 = getelementptr inbounds %union.UElement, ptr %9, i64 %idxprom6
  %elements8 = getelementptr inbounds %"class.icu_75::UVector", ptr %this1, i32 0, i32 3
  %11 = load ptr, ptr %elements8, align 8
  %12 = load i32, ptr %i, align 4
  %idxprom9 = sext i32 %12 to i64
  %arrayidx10 = getelementptr inbounds %union.UElement, ptr %11, i64 %idxprom9
  call void @llvm.memcpy.p0.p0.i64(ptr align 8 %arrayidx10, ptr align 8 %arrayidx7, i64 8, i1 false)
  br label %for.inc

for.inc:                                          ; preds = %for.body
  %13 = load i32, ptr %i, align 4
  %inc = add nsw i32 %13, 1
  store i32 %inc, ptr %i, align 4
  br label %for.cond, !llvm.loop !18

for.end:                                          ; preds = %for.cond
  %count11 = getelementptr inbounds %"class.icu_75::UVector", ptr %this1, i32 0, i32 1
  %14 = load i32, ptr %count11, align 8
  %dec = add nsw i32 %14, -1
  store i32 %dec, ptr %count11, align 8
  br label %if.end

if.end:                                           ; preds = %for.end, %land.lhs.true, %entry
  %15 = load ptr, ptr %e, align 8
  ret ptr %15
}