; Function Attrs: mustprogress nofree norecurse nosync nounwind memory(readwrite, inaccessiblemem: none) uwtable
define noundef ptr @_ZN6icu_757UVector15orphanElementAtEi(ptr nocapture noundef nonnull align 8 dereferenceable(40) %this, i32 noundef %index) local_unnamed_addr #9 align 2 {
entry:
  %cmp = icmp sgt i32 %index, -1
  br i1 %cmp, label %land.lhs.true, label %if.end

land.lhs.true:                                    ; preds = %entry
  %count = getelementptr inbounds i8, ptr %this, i64 8
  %0 = load i32, ptr %count, align 8
  %cmp2 = icmp sgt i32 %0, %index
  br i1 %cmp2, label %if.then, label %if.end

if.then:                                          ; preds = %land.lhs.true
  %elements = getelementptr inbounds i8, ptr %this, i64 16
  %1 = load ptr, ptr %elements, align 8
  %idxprom = zext nneg i32 %index to i64
  %arrayidx = getelementptr inbounds %union.UElement, ptr %1, i64 %idxprom
  %2 = load ptr, ptr %arrayidx, align 8
  %sub7 = add nsw i32 %0, -1
  %cmp48 = icmp ugt i32 %sub7, %index
  br i1 %cmp48, label %for.body, label %for.end

for.body:                                         ; preds = %if.then, %for.body
  %indvars.iv = phi i64 [ %indvars.iv.next, %for.body ], [ %idxprom, %if.then ]
  %3 = load ptr, ptr %elements, align 8
  %indvars.iv.next = add nuw nsw i64 %indvars.iv, 1
  %arrayidx7 = getelementptr inbounds %union.UElement, ptr %3, i64 %indvars.iv.next
  %arrayidx10 = getelementptr inbounds %union.UElement, ptr %3, i64 %indvars.iv
  %4 = load i64, ptr %arrayidx7, align 8
  store i64 %4, ptr %arrayidx10, align 8
  %5 = load i32, ptr %count, align 8
  %sub = add nsw i32 %5, -1
  %6 = trunc i64 %indvars.iv.next to i32
  %cmp4 = icmp sgt i32 %sub, %6
  br i1 %cmp4, label %for.body, label %for.end, !llvm.loop !8

for.end:                                          ; preds = %for.body, %if.then
  %sub.lcssa = phi i32 [ %sub7, %if.then ], [ %sub, %for.body ]
  store i32 %sub.lcssa, ptr %count, align 8
  br label %if.end

if.end:                                           ; preds = %for.end, %land.lhs.true, %entry
  %e.0 = phi ptr [ %2, %for.end ], [ null, %land.lhs.true ], [ null, %entry ]
  ret ptr %e.0
}